target datalayout = "e-m:e-p270:32:32-p271:32:32-p272:64:64-i64:64-i128:128-f80:128-n8:16:32:64-S128"
target triple = "x86_64-pc-linux-gnu"

%struct.lv_color_t = type { i8, i8, i8 }
%struct.lv_color32_t = type { i8, i8, i8, i8 }

; Function Attrs: nounwind uwtable
define i32 @lv_color_to_32(i24 %0, i8 noundef zeroext %1) #0 {
  %3 = alloca %struct.lv_color32_t, align 1
  %4 = alloca %struct.lv_color_t, align 1
  %5 = alloca i8, align 1
  store i24 %0, ptr %4, align 1
  store i8 %1, ptr %5, align 1, !tbaa !7
  %6 = getelementptr inbounds nuw %struct.lv_color_t, ptr %4, i32 0, i32 2
  %7 = load i8, ptr %6, align 1, !tbaa !11
  %8 = getelementptr inbounds nuw %struct.lv_color32_t, ptr %3, i32 0, i32 2
  store i8 %7, ptr %8, align 1, !tbaa !13
  %9 = getelementptr inbounds nuw %struct.lv_color_t, ptr %4, i32 0, i32 1
  %10 = load i8, ptr %9, align 1, !tbaa !15
  %11 = getelementptr inbounds nuw %struct.lv_color32_t, ptr %3, i32 0, i32 1
  store i8 %10, ptr %11, align 1, !tbaa !16
  %12 = getelementptr inbounds nuw %struct.lv_color_t, ptr %4, i32 0, i32 0
  %13 = load i8, ptr %12, align 1, !tbaa !17
  %14 = getelementptr inbounds nuw %struct.lv_color32_t, ptr %3, i32 0, i32 0
  store i8 %13, ptr %14, align 1, !tbaa !18
  %15 = load i8, ptr %5, align 1, !tbaa !7
  %16 = getelementptr inbounds nuw %struct.lv_color32_t, ptr %3, i32 0, i32 3
  store i8 %15, ptr %16, align 1, !tbaa !19
  %17 = load i32, ptr %3, align 1
  ret i32 %17
}