; Function Attrs: mustprogress nofree norecurse nosync nounwind willreturn memory(none) uwtable
define i32 @lv_color_to_32(i24 %0, i8 noundef zeroext %1) local_unnamed_addr #1 {
  %.sroa.3.0.extract.shift = and i24 %0, -65536
  %.sroa.4.0.insert.ext = zext i8 %1 to i32
  %.sroa.4.0.insert.shift = shl nuw i32 %.sroa.4.0.insert.ext, 24
  %.sroa.33.0.insert.shift = zext i24 %.sroa.3.0.extract.shift to i32
  %.sroa.33.0.insert.insert = or disjoint i32 %.sroa.4.0.insert.shift, %.sroa.33.0.insert.shift
  %3 = and i24 %0, 65280
  %.sroa.22.0.insert.shift = zext nneg i24 %3 to i32
  %.sroa.22.0.insert.insert = or disjoint i32 %.sroa.33.0.insert.insert, %.sroa.22.0.insert.shift
  %4 = and i24 %0, 255
  %.sroa.01.0.insert.ext = zext nneg i24 %4 to i32
  %.sroa.01.0.insert.insert = or disjoint i32 %.sroa.22.0.insert.insert, %.sroa.01.0.insert.ext
  ret i32 %.sroa.01.0.insert.insert
}